target datalayout = "e-m:e-p270:32:32-p271:32:32-p272:64:64-i64:64-i128:128-f80:128-n8:16:32:64-S128"
target triple = "x86_64-pc-linux-gnu"

%struct.Abc_Obj_t_ = type { ptr, ptr, i32, i32, %struct.Vec_Int_t_, %struct.Vec_Int_t_, %union.anon, %union.anon.0 }
%struct.Vec_Int_t_ = type { i32, i32, ptr }
%union.anon = type { ptr }
%union.anon.0 = type { ptr }
%struct.Abc_Ntk_t_ = type { i32, i32, ptr, ptr, ptr, ptr, ptr, ptr, ptr, ptr, ptr, ptr, ptr, [11 x i32], i32, i32, i32, i32, ptr, i32, ptr, ptr, i32, i32, i32, double, i32, %struct.Vec_Int_t_, ptr, ptr, ptr, ptr, ptr, float, i32, ptr, ptr, ptr, ptr, ptr, ptr, ptr, ptr, ptr, ptr, ptr, ptr, ptr, ptr, ptr, ptr, ptr, ptr, ptr, ptr, ptr, ptr }

; Function Attrs: inlinehint nounwind uwtable
define internal ptr @Abc_NtkCreateNode(ptr noundef %0) #2 {
  %2 = alloca ptr, align 8
  store ptr %0, ptr %2, align 8, !tbaa !41
  %3 = load ptr, ptr %2, align 8, !tbaa !41
  %4 = call ptr @Abc_NtkCreateObj(ptr noundef %3, i32 noundef 7)
  ret ptr %4
}

; Function Attrs: nounwind uwtable
define ptr @Abc_NtkBddMux21(ptr noundef %0, ptr noundef %1) #0 {
  %3 = alloca ptr, align 8
  %4 = alloca ptr, align 8
  %5 = alloca ptr, align 8
  %6 = alloca ptr, align 8
  %7 = alloca ptr, align 8
  %8 = alloca ptr, align 8
  %9 = alloca ptr, align 8
  store ptr %0, ptr %3, align 8, !tbaa !41
  store ptr %1, ptr %4, align 8, !tbaa !53
  call void @llvm.lifetime.start.p0(i64 8, ptr %5) #12
  %10 = load ptr, ptr %3, align 8, !tbaa !41
  %11 = getelementptr inbounds nuw %struct.Abc_Ntk_t_, ptr %10, i32 0, i32 30
  %12 = load ptr, ptr %11, align 8, !tbaa !55
  store ptr %12, ptr %5, align 8, !tbaa !56
  call void @llvm.lifetime.start.p0(i64 8, ptr %6) #12
  call void @llvm.lifetime.start.p0(i64 8, ptr %7) #12
  call void @llvm.lifetime.start.p0(i64 8, ptr %8) #12
  call void @llvm.lifetime.start.p0(i64 8, ptr %9) #12
  %13 = load ptr, ptr %3, align 8, !tbaa !41
  %14 = call ptr @Abc_NtkCreateNode(ptr noundef %13)
  store ptr %14, ptr %6, align 8, !tbaa !3
  %15 = load ptr, ptr %6, align 8, !tbaa !3
  %16 = load ptr, ptr %4, align 8, !tbaa !53
  %17 = getelementptr inbounds ptr, ptr %16, i64 0
  %18 = load ptr, ptr %17, align 8, !tbaa !3
  call void @Abc_ObjAddFanin(ptr noundef %15, ptr noundef %18)
  %19 = load ptr, ptr %6, align 8, !tbaa !3
  %20 = load ptr, ptr %4, align 8, !tbaa !53
  %21 = getelementptr inbounds ptr, ptr %20, i64 1
  %22 = load ptr, ptr %21, align 8, !tbaa !3
  call void @Abc_ObjAddFanin(ptr noundef %19, ptr noundef %22)
  %23 = load ptr, ptr %6, align 8, !tbaa !3
  %24 = load ptr, ptr %4, align 8, !tbaa !53
  %25 = getelementptr inbounds ptr, ptr %24, i64 2
  %26 = load ptr, ptr %25, align 8, !tbaa !3
  call void @Abc_ObjAddFanin(ptr noundef %23, ptr noundef %26)
  %27 = load ptr, ptr %5, align 8, !tbaa !56
  %28 = call ptr @Cudd_bddIthVar(ptr noundef %27, i32 noundef 0)
  store ptr %28, ptr %7, align 8, !tbaa !58
  %29 = load ptr, ptr %5, align 8, !tbaa !56
  %30 = call ptr @Cudd_bddIthVar(ptr noundef %29, i32 noundef 1)
  store ptr %30, ptr %8, align 8, !tbaa !58
  %31 = load ptr, ptr %5, align 8, !tbaa !56
  %32 = call ptr @Cudd_bddIthVar(ptr noundef %31, i32 noundef 2)
  store ptr %32, ptr %9, align 8, !tbaa !58
  %33 = load ptr, ptr %5, align 8, !tbaa !56
  %34 = load ptr, ptr %7, align 8, !tbaa !58
  %35 = load ptr, ptr %9, align 8, !tbaa !58
  %36 = load ptr, ptr %8, align 8, !tbaa !58
  %37 = call ptr @Cudd_bddIte(ptr noundef %33, ptr noundef %34, ptr noundef %35, ptr noundef %36)
  %38 = load ptr, ptr %6, align 8, !tbaa !3
  %39 = getelementptr inbounds nuw %struct.Abc_Obj_t_, ptr %38, i32 0, i32 6
  store ptr %37, ptr %39, align 8, !tbaa !60
  %40 = load ptr, ptr %6, align 8, !tbaa !3
  %41 = getelementptr inbounds nuw %struct.Abc_Obj_t_, ptr %40, i32 0, i32 6
  %42 = load ptr, ptr %41, align 8, !tbaa !60
  call void @Cudd_Ref(ptr noundef %42)
  %43 = load ptr, ptr %6, align 8, !tbaa !3
  call void @llvm.lifetime.end.p0(i64 8, ptr %9) #12
  call void @llvm.lifetime.end.p0(i64 8, ptr %8) #12
  call void @llvm.lifetime.end.p0(i64 8, ptr %7) #12
  call void @llvm.lifetime.end.p0(i64 8, ptr %6) #12
  call void @llvm.lifetime.end.p0(i64 8, ptr %5) #12
  ret ptr %43
}

; Function Attrs: nounwind uwtable
define ptr @Abc_NtkBddMux413(ptr noundef %0, ptr noundef %1) #0 {
  %3 = alloca ptr, align 8
  %4 = alloca ptr, align 8
  %5 = alloca [3 x ptr], align 16
  %6 = alloca [3 x ptr], align 16
  store ptr %0, ptr %3, align 8, !tbaa !41
  store ptr %1, ptr %4, align 8, !tbaa !53
  call void @llvm.lifetime.start.p0(i64 24, ptr %5) #12
  call void @llvm.lifetime.start.p0(i64 24, ptr %6) #12
  %7 = load ptr, ptr %4, align 8, !tbaa !53
  %8 = getelementptr inbounds ptr, ptr %7, i64 1
  %9 = load ptr, ptr %8, align 8, !tbaa !3
  %10 = getelementptr inbounds [3 x ptr], ptr %5, i64 0, i64 0
  store ptr %9, ptr %10, align 16, !tbaa !3
  %11 = load ptr, ptr %4, align 8, !tbaa !53
  %12 = getelementptr inbounds ptr, ptr %11, i64 2
  %13 = load ptr, ptr %12, align 8, !tbaa !3
  %14 = getelementptr inbounds [3 x ptr], ptr %5, i64 0, i64 1
  store ptr %13, ptr %14, align 8, !tbaa !3
  %15 = load ptr, ptr %4, align 8, !tbaa !53
  %16 = getelementptr inbounds ptr, ptr %15, i64 3
  %17 = load ptr, ptr %16, align 8, !tbaa !3
  %18 = getelementptr inbounds [3 x ptr], ptr %5, i64 0, i64 2
  store ptr %17, ptr %18, align 16, !tbaa !3
  %19 = load ptr, ptr %3, align 8, !tbaa !41
  %20 = getelementptr inbounds [3 x ptr], ptr %5, i64 0, i64 0
  %21 = call ptr @Abc_NtkBddMux21(ptr noundef %19, ptr noundef %20)
  %22 = getelementptr inbounds [3 x ptr], ptr %6, i64 0, i64 1
  store ptr %21, ptr %22, align 8, !tbaa !3
  %23 = load ptr, ptr %4, align 8, !tbaa !53
  %24 = getelementptr inbounds ptr, ptr %23, i64 1
  %25 = load ptr, ptr %24, align 8, !tbaa !3
  %26 = getelementptr inbounds [3 x ptr], ptr %5, i64 0, i64 0
  store ptr %25, ptr %26, align 16, !tbaa !3
  %27 = load ptr, ptr %4, align 8, !tbaa !53
  %28 = getelementptr inbounds ptr, ptr %27, i64 4
  %29 = load ptr, ptr %28, align 8, !tbaa !3
  %30 = getelementptr inbounds [3 x ptr], ptr %5, i64 0, i64 1
  store ptr %29, ptr %30, align 8, !tbaa !3
  %31 = load ptr, ptr %4, align 8, !tbaa !53
  %32 = getelementptr inbounds ptr, ptr %31, i64 5
  %33 = load ptr, ptr %32, align 8, !tbaa !3
  %34 = getelementptr inbounds [3 x ptr], ptr %5, i64 0, i64 2
  store ptr %33, ptr %34, align 16, !tbaa !3
  %35 = load ptr, ptr %3, align 8, !tbaa !41
  %36 = getelementptr inbounds [3 x ptr], ptr %5, i64 0, i64 0
  %37 = call ptr @Abc_NtkBddMux21(ptr noundef %35, ptr noundef %36)
  %38 = getelementptr inbounds [3 x ptr], ptr %6, i64 0, i64 2
  store ptr %37, ptr %38, align 16, !tbaa !3
  %39 = load ptr, ptr %4, align 8, !tbaa !53
  %40 = getelementptr inbounds ptr, ptr %39, i64 0
  %41 = load ptr, ptr %40, align 8, !tbaa !3
  %42 = getelementptr inbounds [3 x ptr], ptr %6, i64 0, i64 0
  store ptr %41, ptr %42, align 16, !tbaa !3
  %43 = load ptr, ptr %3, align 8, !tbaa !41
  %44 = getelementptr inbounds [3 x ptr], ptr %6, i64 0, i64 0
  %45 = call ptr @Abc_NtkBddMux21(ptr noundef %43, ptr noundef %44)
  call void @llvm.lifetime.end.p0(i64 24, ptr %6) #12
  call void @llvm.lifetime.end.p0(i64 24, ptr %5) #12
  ret ptr %45
}