; Function Attrs: nounwind uwtable
define noundef ptr @Abc_NtkBddMux413(ptr noundef %0, ptr noundef readonly captures(none) %1) local_unnamed_addr #0 {
  %3 = getelementptr inbounds nuw i8, ptr %1, i64 8
  %4 = load ptr, ptr %3, align 8, !tbaa !49
  %5 = getelementptr inbounds nuw i8, ptr %1, i64 16
  %6 = load ptr, ptr %5, align 8, !tbaa !49
  %7 = getelementptr inbounds nuw i8, ptr %1, i64 24
  %8 = load ptr, ptr %7, align 8, !tbaa !49
  %9 = getelementptr inbounds nuw i8, ptr %0, i64 256
  %10 = load ptr, ptr %9, align 8, !tbaa !48
  %11 = tail call ptr @Abc_NtkCreateObj(ptr noundef %0, i32 noundef 7) #20
  tail call void @Abc_ObjAddFanin(ptr noundef %11, ptr noundef %4) #20
  tail call void @Abc_ObjAddFanin(ptr noundef %11, ptr noundef %6) #20
  tail call void @Abc_ObjAddFanin(ptr noundef %11, ptr noundef %8) #20
  %12 = tail call ptr @Cudd_bddIthVar(ptr noundef %10, i32 noundef 0) #20
  %13 = tail call ptr @Cudd_bddIthVar(ptr noundef %10, i32 noundef 1) #20
  %14 = tail call ptr @Cudd_bddIthVar(ptr noundef %10, i32 noundef 2) #20
  %15 = tail call ptr @Cudd_bddIte(ptr noundef %10, ptr noundef %12, ptr noundef %14, ptr noundef %13) #20
  %16 = getelementptr inbounds nuw i8, ptr %11, i64 56
  store ptr %15, ptr %16, align 8, !tbaa !50
  tail call void @Cudd_Ref(ptr noundef %15) #20
  %17 = load ptr, ptr %3, align 8, !tbaa !49
  %18 = getelementptr inbounds nuw i8, ptr %1, i64 32
  %19 = load ptr, ptr %18, align 8, !tbaa !49
  %20 = getelementptr inbounds nuw i8, ptr %1, i64 40
  %21 = load ptr, ptr %20, align 8, !tbaa !49
  %22 = load ptr, ptr %9, align 8, !tbaa !48
  %23 = tail call ptr @Abc_NtkCreateObj(ptr noundef %0, i32 noundef 7) #20
  tail call void @Abc_ObjAddFanin(ptr noundef %23, ptr noundef %17) #20
  tail call void @Abc_ObjAddFanin(ptr noundef %23, ptr noundef %19) #20
  tail call void @Abc_ObjAddFanin(ptr noundef %23, ptr noundef %21) #20
  %24 = tail call ptr @Cudd_bddIthVar(ptr noundef %22, i32 noundef 0) #20
  %25 = tail call ptr @Cudd_bddIthVar(ptr noundef %22, i32 noundef 1) #20
  %26 = tail call ptr @Cudd_bddIthVar(ptr noundef %22, i32 noundef 2) #20
  %27 = tail call ptr @Cudd_bddIte(ptr noundef %22, ptr noundef %24, ptr noundef %26, ptr noundef %25) #20
  %28 = getelementptr inbounds nuw i8, ptr %23, i64 56
  store ptr %27, ptr %28, align 8, !tbaa !50
  tail call void @Cudd_Ref(ptr noundef %27) #20
  %29 = load ptr, ptr %1, align 8, !tbaa !49
  %30 = load ptr, ptr %9, align 8, !tbaa !48
  %31 = tail call ptr @Abc_NtkCreateObj(ptr noundef %0, i32 noundef 7) #20
  tail call void @Abc_ObjAddFanin(ptr noundef %31, ptr noundef %29) #20
  tail call void @Abc_ObjAddFanin(ptr noundef %31, ptr noundef %11) #20
  tail call void @Abc_ObjAddFanin(ptr noundef %31, ptr noundef %23) #20
  %32 = tail call ptr @Cudd_bddIthVar(ptr noundef %30, i32 noundef 0) #20
  %33 = tail call ptr @Cudd_bddIthVar(ptr noundef %30, i32 noundef 1) #20
  %34 = tail call ptr @Cudd_bddIthVar(ptr noundef %30, i32 noundef 2) #20
  %35 = tail call ptr @Cudd_bddIte(ptr noundef %30, ptr noundef %32, ptr noundef %34, ptr noundef %33) #20
  %36 = getelementptr inbounds nuw i8, ptr %31, i64 56
  store ptr %35, ptr %36, align 8, !tbaa !50
  tail call void @Cudd_Ref(ptr noundef %35) #20
  ret ptr %31
}